; Function Attrs: nounwind uwtable
define range(i32 0, 2) i32 @dt_datetime_gdatetime_to_exif(ptr noundef %0, i64 noundef %1, ptr noundef %2) local_unnamed_addr #0 {
  %4 = icmp ne ptr %0, null
  %5 = icmp ne i64 %1, 0
  %or.cond = and i1 %4, %5
  %6 = icmp ne ptr %2, null
  %or.cond3 = and i1 %or.cond, %6
  br i1 %or.cond3, label %7, label %19

7:                                                ; preds = %3
  store i8 0, ptr %0, align 1, !tbaa !57
  %8 = tail call noalias ptr @g_date_time_format(ptr noundef nonnull %2, ptr noundef nonnull @.str.3) #7
  %.not = icmp eq ptr %8, null
  br i1 %.not, label %19, label %9

9:                                                ; preds = %7
  %10 = icmp eq i64 %1, 24
  br i1 %10, label %11, label %17

11:                                               ; preds = %9
  %12 = tail call i32 @g_date_time_get_microsecond(ptr noundef nonnull %2) #7
  %13 = sitofp i32 %12 to double
  %14 = fmul reassoc nsz arcp contract afn double %13, 1.000000e-03
  %15 = fptosi double %14 to i32
  %16 = tail call noalias ptr (ptr, ...) @g_strdup_printf(ptr noundef nonnull @.str.6, ptr noundef nonnull %8, ptr noundef nonnull @.str.7, i32 noundef %15) #7
  tail call void @g_free(ptr noundef nonnull %8) #7
  br label %17

17:                                               ; preds = %11, %9
  %.018 = phi ptr [ %16, %11 ], [ %8, %9 ]
  %18 = tail call i64 @g_strlcpy(ptr noundef nonnull %0, ptr noundef %.018, i64 noundef %1) #7
  tail call void @g_free(ptr noundef %.018) #7
  br label %19

19:                                               ; preds = %17, %7, %3
  %.0 = phi i32 [ 0, %3 ], [ 1, %17 ], [ 0, %7 ]
  ret i32 %.0
}